Certificate:
    Data:
        Version: 3 (0x2)
        Serial Number: 1 (0x1)
        Signature Algorithm: sha512WithRSAEncryption
        Issuer: C=ca, ST=catalunya, L=barcelona, O=veritat absoluta ca, OU=certificats, CN=veritat absoluta/emailAddress=adm@veritat
        Validity
            Not Before: Mar 12 07:57:11 2021 GMT
            Not After : Mar 10 07:57:11 2031 GMT
        Subject: C=es, ST=es, L=madrid, O=pp, OU=barcenas, CN=tres percent
        Subject Public Key Info:
            Public Key Algorithm: rsaEncryption
                RSA Public-Key: (2048 bit)
                Modulus:
                    00:dc:ef:4f:8b:0e:14:b7:fd:86:41:7a:2b:c0:7d:
                    d8:13:de:50:d7:0f:28:f1:de:30:0b:21:9c:2b:9f:
                    8c:2a:84:e8:62:b1:f8:3a:6c:14:86:c5:70:b1:3b:
                    19:f1:40:f2:69:0b:40:79:ee:e4:a3:70:a7:1a:5d:
                    42:0d:f0:05:49:c3:e3:9b:e8:15:e4:90:5e:e2:dd:
                    9d:68:47:97:91:1f:e8:26:a5:c3:b1:3f:fa:ec:46:
                    14:10:66:49:cc:29:68:2c:c3:29:7d:2f:96:9b:2b:
                    16:e7:02:6d:af:44:f0:a0:00:0b:85:4c:8e:ba:bd:
                    4d:6d:ba:c0:fc:b1:b6:f6:11:21:ca:66:3e:0e:bb:
                    3e:d2:1e:30:b1:0e:da:15:c1:e2:f8:ef:c7:4b:94:
                    d7:49:5a:2d:62:69:b9:8a:5c:f5:14:6d:86:84:0a:
                    6c:27:34:3c:69:53:53:73:cd:d5:8b:e7:a7:1e:25:
                    6d:45:71:46:8a:de:86:3c:55:d2:d6:da:a1:53:e1:
                    5c:42:24:0b:5c:4a:6d:cb:a0:88:2d:d6:a3:d5:b3:
                    e9:2f:56:8a:51:7e:63:f7:ed:31:6c:0c:18:55:7a:
                    7f:4c:05:33:c8:36:6a:59:84:eb:b8:54:21:96:47:
                    92:e6:24:8a:d7:d1:01:66:e5:b9:0b:0b:92:92:01:
                    1f:0f
                Exponent: 65537 (0x10001)
        X509v3 extensions:
            X509v3 Basic Constraints: 
                CA:FALSE
            Netscape Comment: 
                OpenSSL Generated Certificate
            X509v3 Subject Key Identifier: 
                1E:75:CE:67:BD:75:53:73:B3:A6:30:BF:28:31:97:70:86:43:EA:ED
            X509v3 Authority Key Identifier: 
                keyid:F7:38:86:50:61:5F:99:80:5A:6B:58:BE:CE:F7:00:DE:17:C3:7A:B5

    Signature Algorithm: sha512WithRSAEncryption
         1d:23:a6:d6:dc:ba:96:dd:2f:2c:9e:6c:1d:2a:7e:73:4c:28:
         28:09:0b:c4:3e:12:4a:58:1e:67:54:ba:39:85:b4:ea:b9:a9:
         11:b3:61:b5:5e:00:45:23:08:37:9d:54:84:3a:1a:53:05:c1:
         77:c8:af:c7:62:58:98:0a:db:4e:db:58:ee:5d:f5:98:d1:05:
         69:43:96:95:b5:bf:51:d5:83:d8:b7:de:74:01:f1:12:51:f2:
         58:5b:51:e0:6b:36:10:e8:2e:a2:e4:69:09:5a:c8:b5:69:1d:
         80:4b:5a:3b:76:58:a3:13:63:56:8e:06:f4:9a:9a:ad:70:b2:
         13:65:80:13:73:ef:4a:1d:99:78:8a:87:cf:66:56:c7:55:30:
         14:45:e3:56:6a:06:b7:b0:92:b2:14:da:5c:70:fa:b2:f0:ce:
         69:b7:9d:bb:2d:09:b9:5c:4e:81:88:f4:94:bc:44:1e:77:b1:
         0a:49:1b:64:31:8d:24:85:82:ed:29:ca:12:8d:f4:7c:ea:1f:
         5c:56:58:e7:0c:57:99:5a:aa:71:10:bd:27:7e:48:24:97:ed:
         8d:5a:d6:f2:a6:80:d8:1d:0b:0e:76:f0:82:5c:d1:b9:db:a1:
         a7:ed:11:c4:41:60:ef:c9:6e:f7:b0:ec:e4:ad:e0:2a:a2:d4:
         7b:6b:df:2a
-----BEGIN CERTIFICATE-----
MIID+TCCAuGgAwIBAgIBATANBgkqhkiG9w0BAQ0FADCBoDELMAkGA1UEBhMCY2Ex
EjAQBgNVBAgMCWNhdGFsdW55YTESMBAGA1UEBwwJYmFyY2Vsb25hMRwwGgYDVQQK
DBN2ZXJpdGF0IGFic29sdXRhIGNhMRQwEgYDVQQLDAtjZXJ0aWZpY2F0czEZMBcG
A1UEAwwQdmVyaXRhdCBhYnNvbHV0YTEaMBgGCSqGSIb3DQEJARYLYWRtQHZlcml0
YXQwHhcNMjEwMzEyMDc1NzExWhcNMzEwMzEwMDc1NzExWjBiMQswCQYDVQQGEwJl
czELMAkGA1UECAwCZXMxDzANBgNVBAcMBm1hZHJpZDELMAkGA1UECgwCcHAxETAP
BgNVBAsMCGJhcmNlbmFzMRUwEwYDVQQDDAx0cmVzIHBlcmNlbnQwggEiMA0GCSqG
SIb3DQEBAQUAA4IBDwAwggEKAoIBAQDc70+LDhS3/YZBeivAfdgT3lDXDyjx3jAL
IZwrn4wqhOhisfg6bBSGxXCxOxnxQPJpC0B57uSjcKcaXUIN8AVJw+Ob6BXkkF7i
3Z1oR5eRH+gmpcOxP/rsRhQQZknMKWgswyl9L5abKxbnAm2vRPCgAAuFTI66vU1t
usD8sbb2ESHKZj4Ouz7SHjCxDtoVweL478dLlNdJWi1iabmKXPUUbYaECmwnNDxp
U1NzzdWL56ceJW1FcUaK3oY8VdLW2qFT4VxCJAtcSm3LoIgt1qPVs+kvVopRfmP3
7TFsDBhVen9MBTPINmpZhOu4VCGWR5LmJIrX0QFm5bkLC5KSAR8PAgMBAAGjezB5
MAkGA1UdEwQCMAAwLAYJYIZIAYb4QgENBB8WHU9wZW5TU0wgR2VuZXJhdGVkIENl
cnRpZmljYXRlMB0GA1UdDgQWBBQedc5nvXVTc7OmML8oMZdwhkPq7TAfBgNVHSME
GDAWgBT3OIZQYV+ZgFprWL7O9wDeF8N6tTANBgkqhkiG9w0BAQ0FAAOCAQEAHSOm
1ty6lt0vLJ5sHSp+c0woKAkLxD4SSlgeZ1S6OYW06rmpEbNhtV4ARSMIN51UhDoa
UwXBd8ivx2JYmArbTttY7l31mNEFaUOWlbW/UdWD2LfedAHxElHyWFtR4Gs2EOgu
ouRpCVrItWkdgEtaO3ZYoxNjVo4G9JqarXCyE2WAE3PvSh2ZeIqHz2ZWx1UwFEXj
VmoGt7CSshTaXHD6svDOabeduy0JuVxOgYj0lLxEHnexCkkbZDGNJIWC7SnKEo30
fOofXFZY5wxXmVqqcRC9J35IJJftjVrW8qaA2B0LDnbwglzRuduhp+0RxEFg78lu
97Ds5K3gKqLUe2vfKg==
-----END CERTIFICATE-----
