Certificate:
    Data:
        Version: 3 (0x2)
        Serial Number: 2 (0x2)
        Signature Algorithm: sha512WithRSAEncryption
        Issuer: C=ca, ST=catalunya, L=barcelona, O=veritat absoluta ca, OU=certificats, CN=veritat absoluta/emailAddress=adm@veritat
        Validity
            Not Before: Mar 12 08:21:05 2021 GMT
            Not After : Mar 10 08:21:05 2031 GMT
        Subject: C=ca, ST=catalunya, O=escola del treball, OU=inforamtica, CN=ldap.edt.org/emailAddress=admin@edt.org
        Subject Public Key Info:
            Public Key Algorithm: rsaEncryption
                RSA Public-Key: (2048 bit)
                Modulus:
                    00:dc:ef:4f:8b:0e:14:b7:fd:86:41:7a:2b:c0:7d:
                    d8:13:de:50:d7:0f:28:f1:de:30:0b:21:9c:2b:9f:
                    8c:2a:84:e8:62:b1:f8:3a:6c:14:86:c5:70:b1:3b:
                    19:f1:40:f2:69:0b:40:79:ee:e4:a3:70:a7:1a:5d:
                    42:0d:f0:05:49:c3:e3:9b:e8:15:e4:90:5e:e2:dd:
                    9d:68:47:97:91:1f:e8:26:a5:c3:b1:3f:fa:ec:46:
                    14:10:66:49:cc:29:68:2c:c3:29:7d:2f:96:9b:2b:
                    16:e7:02:6d:af:44:f0:a0:00:0b:85:4c:8e:ba:bd:
                    4d:6d:ba:c0:fc:b1:b6:f6:11:21:ca:66:3e:0e:bb:
                    3e:d2:1e:30:b1:0e:da:15:c1:e2:f8:ef:c7:4b:94:
                    d7:49:5a:2d:62:69:b9:8a:5c:f5:14:6d:86:84:0a:
                    6c:27:34:3c:69:53:53:73:cd:d5:8b:e7:a7:1e:25:
                    6d:45:71:46:8a:de:86:3c:55:d2:d6:da:a1:53:e1:
                    5c:42:24:0b:5c:4a:6d:cb:a0:88:2d:d6:a3:d5:b3:
                    e9:2f:56:8a:51:7e:63:f7:ed:31:6c:0c:18:55:7a:
                    7f:4c:05:33:c8:36:6a:59:84:eb:b8:54:21:96:47:
                    92:e6:24:8a:d7:d1:01:66:e5:b9:0b:0b:92:92:01:
                    1f:0f
                Exponent: 65537 (0x10001)
        X509v3 extensions:
            X509v3 Subject Key Identifier: 
                1E:75:CE:67:BD:75:53:73:B3:A6:30:BF:28:31:97:70:86:43:EA:ED
            X509v3 Authority Key Identifier: 
                keyid:F7:38:86:50:61:5F:99:80:5A:6B:58:BE:CE:F7:00:DE:17:C3:7A:B5

            X509v3 Basic Constraints: critical
                CA:TRUE
    Signature Algorithm: sha512WithRSAEncryption
         53:a7:ce:2b:08:e2:9f:62:34:8b:85:8c:96:2f:31:a9:6b:a9:
         64:cb:78:22:a7:9d:09:57:e9:ec:fe:38:60:2e:d9:2d:80:ba:
         59:c1:25:81:62:c7:b1:f3:e5:58:34:d8:2d:a7:ee:c3:1c:a5:
         16:12:56:01:7f:02:1c:85:f2:68:30:88:4b:b7:9f:ce:6f:eb:
         f3:13:31:ad:e6:2f:7c:0c:9f:19:db:86:5b:af:e2:76:d1:c5:
         42:0a:65:86:71:db:c8:ae:51:ed:84:0a:de:bf:d6:fb:6c:f6:
         b2:2b:e2:a2:e2:c5:f6:39:b0:b3:9b:cc:78:6c:e6:23:c9:a7:
         fa:c1:c9:66:0a:80:be:40:29:e3:a0:cf:ee:40:96:8e:ed:3d:
         ae:05:0d:9c:2c:29:51:8b:19:fd:85:a3:02:a6:a7:3c:04:ee:
         20:17:2d:0a:e9:4b:99:d0:de:fd:30:5f:36:b1:a9:ab:22:29:
         1b:bf:80:f4:fe:57:29:c8:fb:d3:d4:07:ea:b9:67:68:b4:93:
         89:27:50:8e:c2:a9:c7:92:5b:dd:32:35:1a:1a:8e:3a:49:e5:
         00:03:6f:6b:13:20:61:dd:92:77:ad:7c:53:de:26:df:63:26:
         65:7b:33:38:a5:d5:aa:6c:cb:ae:a6:a2:3c:fd:a9:82:08:1b:
         0e:f7:cf:cd
-----BEGIN CERTIFICATE-----
MIID+TCCAuGgAwIBAgIBAjANBgkqhkiG9w0BAQ0FADCBoDELMAkGA1UEBhMCY2Ex
EjAQBgNVBAgMCWNhdGFsdW55YTESMBAGA1UEBwwJYmFyY2Vsb25hMRwwGgYDVQQK
DBN2ZXJpdGF0IGFic29sdXRhIGNhMRQwEgYDVQQLDAtjZXJ0aWZpY2F0czEZMBcG
A1UEAwwQdmVyaXRhdCBhYnNvbHV0YTEaMBgGCSqGSIb3DQEJARYLYWRtQHZlcml0
YXQwHhcNMjEwMzEyMDgyMTA1WhcNMzEwMzEwMDgyMTA1WjCBiTELMAkGA1UEBhMC
Y2ExEjAQBgNVBAgMCWNhdGFsdW55YTEbMBkGA1UECgwSZXNjb2xhIGRlbCB0cmVi
YWxsMRQwEgYDVQQLDAtpbmZvcmFtdGljYTEVMBMGA1UEAwwMbGRhcC5lZHQub3Jn
MRwwGgYJKoZIhvcNAQkBFg1hZG1pbkBlZHQub3JnMIIBIjANBgkqhkiG9w0BAQEF
AAOCAQ8AMIIBCgKCAQEA3O9Piw4Ut/2GQXorwH3YE95Q1w8o8d4wCyGcK5+MKoTo
YrH4OmwUhsVwsTsZ8UDyaQtAee7ko3CnGl1CDfAFScPjm+gV5JBe4t2daEeXkR/o
JqXDsT/67EYUEGZJzCloLMMpfS+WmysW5wJtr0TwoAALhUyOur1NbbrA/LG29hEh
ymY+Drs+0h4wsQ7aFcHi+O/HS5TXSVotYmm5ilz1FG2GhApsJzQ8aVNTc83Vi+en
HiVtRXFGit6GPFXS1tqhU+FcQiQLXEpty6CILdaj1bPpL1aKUX5j9+0xbAwYVXp/
TAUzyDZqWYTruFQhlkeS5iSK19EBZuW5CwuSkgEfDwIDAQABo1MwUTAdBgNVHQ4E
FgQUHnXOZ711U3OzpjC/KDGXcIZD6u0wHwYDVR0jBBgwFoAU9ziGUGFfmYBaa1i+
zvcA3hfDerUwDwYDVR0TAQH/BAUwAwEB/zANBgkqhkiG9w0BAQ0FAAOCAQEAU6fO
Kwjin2I0i4WMli8xqWupZMt4IqedCVfp7P44YC7ZLYC6WcElgWLHsfPlWDTYLafu
wxylFhJWAX8CHIXyaDCIS7efzm/r8xMxreYvfAyfGduGW6/idtHFQgplhnHbyK5R
7YQK3r/W+2z2siviouLF9jmws5vMeGzmI8mn+sHJZgqAvkAp46DP7kCWju09rgUN
nCwpUYsZ/YWjAqanPATuIBctCulLmdDe/TBfNrGpqyIpG7+A9P5XKcj709QH6rln
aLSTiSdQjsKpx5Jb3TI1GhqOOknlAANvaxMgYd2Sd618U94m32MmZXszOKXVqmzL
rqaiPP2pgggbDvfPzQ==
-----END CERTIFICATE-----
