Certificate:
    Data:
        Version: 3 (0x2)
        Serial Number: 3 (0x3)
        Signature Algorithm: sha512WithRSAEncryption
        Issuer: C=ca, ST=catalunya, L=barcelona, O=veritat absoluta ca, OU=certificats, CN=veritat absoluta/emailAddress=adm@veritat
        Validity
            Not Before: Mar 12 08:23:37 2021 GMT
            Not After : Mar 10 08:23:37 2031 GMT
        Subject: C=ca, ST=catalunya, O=escola del treball, OU=inforamtica, CN=ldap.edt.org/emailAddress=admin@edt.org
        Subject Public Key Info:
            Public Key Algorithm: rsaEncryption
                RSA Public-Key: (2048 bit)
                Modulus:
                    00:dc:ef:4f:8b:0e:14:b7:fd:86:41:7a:2b:c0:7d:
                    d8:13:de:50:d7:0f:28:f1:de:30:0b:21:9c:2b:9f:
                    8c:2a:84:e8:62:b1:f8:3a:6c:14:86:c5:70:b1:3b:
                    19:f1:40:f2:69:0b:40:79:ee:e4:a3:70:a7:1a:5d:
                    42:0d:f0:05:49:c3:e3:9b:e8:15:e4:90:5e:e2:dd:
                    9d:68:47:97:91:1f:e8:26:a5:c3:b1:3f:fa:ec:46:
                    14:10:66:49:cc:29:68:2c:c3:29:7d:2f:96:9b:2b:
                    16:e7:02:6d:af:44:f0:a0:00:0b:85:4c:8e:ba:bd:
                    4d:6d:ba:c0:fc:b1:b6:f6:11:21:ca:66:3e:0e:bb:
                    3e:d2:1e:30:b1:0e:da:15:c1:e2:f8:ef:c7:4b:94:
                    d7:49:5a:2d:62:69:b9:8a:5c:f5:14:6d:86:84:0a:
                    6c:27:34:3c:69:53:53:73:cd:d5:8b:e7:a7:1e:25:
                    6d:45:71:46:8a:de:86:3c:55:d2:d6:da:a1:53:e1:
                    5c:42:24:0b:5c:4a:6d:cb:a0:88:2d:d6:a3:d5:b3:
                    e9:2f:56:8a:51:7e:63:f7:ed:31:6c:0c:18:55:7a:
                    7f:4c:05:33:c8:36:6a:59:84:eb:b8:54:21:96:47:
                    92:e6:24:8a:d7:d1:01:66:e5:b9:0b:0b:92:92:01:
                    1f:0f
                Exponent: 65537 (0x10001)
        X509v3 extensions:
            X509v3 Basic Constraints: 
                CA:FALSE
            X509v3 Subject Key Identifier: 
                1E:75:CE:67:BD:75:53:73:B3:A6:30:BF:28:31:97:70:86:43:EA:ED
            X509v3 Authority Key Identifier: 
                keyid:F7:38:86:50:61:5F:99:80:5A:6B:58:BE:CE:F7:00:DE:17:C3:7A:B5
                DirName:/C=ca/ST=catalunya/L=barcelona/O=veritat absoluta ca/OU=certificats/CN=veritat absoluta/emailAddress=adm@veritat
                serial:54:97:D3:C5:B6:DB:AF:8A:BD:9E:D1:4E:A4:00:C4:1B:93:F8:7D:DF

    Signature Algorithm: sha512WithRSAEncryption
         64:75:6e:db:85:2c:74:9f:44:c0:43:be:76:4e:6c:dc:6b:0f:
         b0:29:c0:23:e6:6a:2e:4d:aa:78:cf:3b:6f:7d:fe:03:fb:6c:
         48:92:26:30:a3:51:92:e5:43:63:62:fb:77:31:d7:b0:ee:71:
         a5:1b:6e:83:c1:2e:f0:b7:31:50:ff:d1:ad:13:e3:71:a7:42:
         ac:3c:42:30:e4:d5:57:eb:17:e5:a5:0c:de:e3:c2:d0:de:a5:
         7f:a3:61:6f:04:31:b1:76:ea:17:9c:f7:1b:10:7b:34:96:52:
         ce:52:6f:1a:39:49:9a:b8:87:1d:bf:e1:40:88:de:e3:f5:4f:
         13:1c:6e:5b:73:3f:19:e9:81:ad:3c:3e:93:f6:cc:e7:80:0b:
         5a:35:fc:ca:fb:06:a4:28:49:8d:37:0b:83:a2:6f:c8:ff:d2:
         33:90:3d:a5:af:45:17:50:42:68:58:c9:cb:49:2c:ee:ae:b6:
         00:a1:04:73:a7:0e:7c:ec:bb:b0:0c:d1:55:0c:74:ca:b2:58:
         22:76:cb:59:4a:be:67:0e:88:15:e6:26:15:59:ca:ba:10:dd:
         20:17:76:f1:a7:e3:08:58:eb:30:69:56:a5:8a:b4:9b:89:f5:
         47:f6:72:20:95:c5:eb:c0:5c:6b:b3:6c:ea:9a:57:fb:24:40:
         c8:af:68:96
-----BEGIN CERTIFICATE-----
MIIEuTCCA6GgAwIBAgIBAzANBgkqhkiG9w0BAQ0FADCBoDELMAkGA1UEBhMCY2Ex
EjAQBgNVBAgMCWNhdGFsdW55YTESMBAGA1UEBwwJYmFyY2Vsb25hMRwwGgYDVQQK
DBN2ZXJpdGF0IGFic29sdXRhIGNhMRQwEgYDVQQLDAtjZXJ0aWZpY2F0czEZMBcG
A1UEAwwQdmVyaXRhdCBhYnNvbHV0YTEaMBgGCSqGSIb3DQEJARYLYWRtQHZlcml0
YXQwHhcNMjEwMzEyMDgyMzM3WhcNMzEwMzEwMDgyMzM3WjCBiTELMAkGA1UEBhMC
Y2ExEjAQBgNVBAgMCWNhdGFsdW55YTEbMBkGA1UECgwSZXNjb2xhIGRlbCB0cmVi
YWxsMRQwEgYDVQQLDAtpbmZvcmFtdGljYTEVMBMGA1UEAwwMbGRhcC5lZHQub3Jn
MRwwGgYJKoZIhvcNAQkBFg1hZG1pbkBlZHQub3JnMIIBIjANBgkqhkiG9w0BAQEF
AAOCAQ8AMIIBCgKCAQEA3O9Piw4Ut/2GQXorwH3YE95Q1w8o8d4wCyGcK5+MKoTo
YrH4OmwUhsVwsTsZ8UDyaQtAee7ko3CnGl1CDfAFScPjm+gV5JBe4t2daEeXkR/o
JqXDsT/67EYUEGZJzCloLMMpfS+WmysW5wJtr0TwoAALhUyOur1NbbrA/LG29hEh
ymY+Drs+0h4wsQ7aFcHi+O/HS5TXSVotYmm5ilz1FG2GhApsJzQ8aVNTc83Vi+en
HiVtRXFGit6GPFXS1tqhU+FcQiQLXEpty6CILdaj1bPpL1aKUX5j9+0xbAwYVXp/
TAUzyDZqWYTruFQhlkeS5iSK19EBZuW5CwuSkgEfDwIDAQABo4IBETCCAQ0wCQYD
VR0TBAIwADAdBgNVHQ4EFgQUHnXOZ711U3OzpjC/KDGXcIZD6u0wgeAGA1UdIwSB
2DCB1YAU9ziGUGFfmYBaa1i+zvcA3hfDerWhgaakgaMwgaAxCzAJBgNVBAYTAmNh
MRIwEAYDVQQIDAljYXRhbHVueWExEjAQBgNVBAcMCWJhcmNlbG9uYTEcMBoGA1UE
CgwTdmVyaXRhdCBhYnNvbHV0YSBjYTEUMBIGA1UECwwLY2VydGlmaWNhdHMxGTAX
BgNVBAMMEHZlcml0YXQgYWJzb2x1dGExGjAYBgkqhkiG9w0BCQEWC2FkbUB2ZXJp
dGF0ghRUl9PFttuvir2e0U6kAMQbk/h93zANBgkqhkiG9w0BAQ0FAAOCAQEAZHVu
24UsdJ9EwEO+dk5s3GsPsCnAI+ZqLk2qeM87b33+A/tsSJImMKNRkuVDY2L7dzHX
sO5xpRtug8Eu8LcxUP/RrRPjcadCrDxCMOTVV+sX5aUM3uPC0N6lf6NhbwQxsXbq
F5z3GxB7NJZSzlJvGjlJmriHHb/hQIje4/VPExxuW3M/GemBrTw+k/bM54ALWjX8
yvsGpChJjTcLg6JvyP/SM5A9pa9FF1BCaFjJy0ks7q62AKEEc6cOfOy7sAzRVQx0
yrJYInbLWUq+Zw6IFeYmFVnKuhDdIBd28afjCFjrMGlWpYq0m4n1R/ZyIJXF68Bc
a7Ns6ppX+yRAyK9olg==
-----END CERTIFICATE-----
