Certificate:
    Data:
        Version: 3 (0x2)
        Serial Number: 4 (0x4)
        Signature Algorithm: sha512WithRSAEncryption
        Issuer: C=ca, ST=catalunya, L=barcelona, O=veritat absoluta ca, OU=certificats, CN=veritat absoluta/emailAddress=adm@veritat
        Validity
            Not Before: Mar 12 08:26:00 2021 GMT
            Not After : Mar 10 08:26:00 2031 GMT
        Subject: C=ca, ST=catalunya, O=escola del treball, OU=inforamtica, CN=ldap.edt.org/emailAddress=admin@edt.org
        Subject Public Key Info:
            Public Key Algorithm: rsaEncryption
                RSA Public-Key: (2048 bit)
                Modulus:
                    00:dc:ef:4f:8b:0e:14:b7:fd:86:41:7a:2b:c0:7d:
                    d8:13:de:50:d7:0f:28:f1:de:30:0b:21:9c:2b:9f:
                    8c:2a:84:e8:62:b1:f8:3a:6c:14:86:c5:70:b1:3b:
                    19:f1:40:f2:69:0b:40:79:ee:e4:a3:70:a7:1a:5d:
                    42:0d:f0:05:49:c3:e3:9b:e8:15:e4:90:5e:e2:dd:
                    9d:68:47:97:91:1f:e8:26:a5:c3:b1:3f:fa:ec:46:
                    14:10:66:49:cc:29:68:2c:c3:29:7d:2f:96:9b:2b:
                    16:e7:02:6d:af:44:f0:a0:00:0b:85:4c:8e:ba:bd:
                    4d:6d:ba:c0:fc:b1:b6:f6:11:21:ca:66:3e:0e:bb:
                    3e:d2:1e:30:b1:0e:da:15:c1:e2:f8:ef:c7:4b:94:
                    d7:49:5a:2d:62:69:b9:8a:5c:f5:14:6d:86:84:0a:
                    6c:27:34:3c:69:53:53:73:cd:d5:8b:e7:a7:1e:25:
                    6d:45:71:46:8a:de:86:3c:55:d2:d6:da:a1:53:e1:
                    5c:42:24:0b:5c:4a:6d:cb:a0:88:2d:d6:a3:d5:b3:
                    e9:2f:56:8a:51:7e:63:f7:ed:31:6c:0c:18:55:7a:
                    7f:4c:05:33:c8:36:6a:59:84:eb:b8:54:21:96:47:
                    92:e6:24:8a:d7:d1:01:66:e5:b9:0b:0b:92:92:01:
                    1f:0f
                Exponent: 65537 (0x10001)
        X509v3 extensions:
            X509v3 Basic Constraints: 
                CA:TRUE
            Netscape Cert Type: 
                SSL Server
            Netscape Comment: 
                OpenSSL Generated Server Certificate
            X509v3 Subject Key Identifier: 
                1E:75:CE:67:BD:75:53:73:B3:A6:30:BF:28:31:97:70:86:43:EA:ED
            X509v3 Authority Key Identifier: 
                keyid:F7:38:86:50:61:5F:99:80:5A:6B:58:BE:CE:F7:00:DE:17:C3:7A:B5
                DirName:/C=ca/ST=catalunya/L=barcelona/O=veritat absoluta ca/OU=certificats/CN=veritat absoluta/emailAddress=adm@veritat
                serial:54:97:D3:C5:B6:DB:AF:8A:BD:9E:D1:4E:A4:00:C4:1B:93:F8:7D:DF

            X509v3 Extended Key Usage: 
                TLS Web Server Authentication
            X509v3 Key Usage: 
                Digital Signature, Key Encipherment
    Signature Algorithm: sha512WithRSAEncryption
         55:38:42:80:74:e6:45:e4:0f:11:55:83:0c:3f:d2:99:75:9d:
         58:19:7c:51:fa:bc:c0:b0:a3:71:73:64:33:3c:6d:94:a9:37:
         96:14:57:e0:aa:fa:e6:f9:c3:bd:0c:e8:87:b2:43:33:50:e5:
         96:01:e0:85:f3:a8:5a:8e:e0:6b:b4:ae:2d:31:8a:6d:ff:8b:
         33:a9:c2:78:02:50:15:ab:f5:58:4a:ff:0b:77:e0:88:eb:67:
         7c:03:70:f5:b0:2f:81:c3:0b:ed:d2:78:7e:31:a5:ff:16:13:
         72:c9:71:f4:b3:f1:80:79:70:51:d2:ff:cf:bb:24:b9:b3:c4:
         0c:7c:4c:f9:03:49:b5:96:9a:60:f5:34:86:2e:15:2d:3e:46:
         83:2c:da:51:6f:a8:14:76:07:d8:0c:b5:cc:2d:5d:b7:66:03:
         94:9f:64:af:b7:12:10:43:c6:e7:63:cb:7c:be:11:0c:24:b3:
         8b:22:fa:46:b1:a6:62:73:ac:ec:54:ac:6d:a3:96:d4:77:41:
         fb:fd:d9:c8:70:35:b0:df:4a:7c:aa:af:86:63:b9:01:cf:d9:
         97:47:1c:4f:af:59:d6:98:b4:66:01:36:4f:2d:4c:2c:97:ad:
         f9:b5:ff:3b:14:ae:4a:91:30:26:a1:9f:69:68:13:e3:63:e9:
         a8:88:61:3f
-----BEGIN CERTIFICATE-----
MIIFJjCCBA6gAwIBAgIBBDANBgkqhkiG9w0BAQ0FADCBoDELMAkGA1UEBhMCY2Ex
EjAQBgNVBAgMCWNhdGFsdW55YTESMBAGA1UEBwwJYmFyY2Vsb25hMRwwGgYDVQQK
DBN2ZXJpdGF0IGFic29sdXRhIGNhMRQwEgYDVQQLDAtjZXJ0aWZpY2F0czEZMBcG
A1UEAwwQdmVyaXRhdCBhYnNvbHV0YTEaMBgGCSqGSIb3DQEJARYLYWRtQHZlcml0
YXQwHhcNMjEwMzEyMDgyNjAwWhcNMzEwMzEwMDgyNjAwWjCBiTELMAkGA1UEBhMC
Y2ExEjAQBgNVBAgMCWNhdGFsdW55YTEbMBkGA1UECgwSZXNjb2xhIGRlbCB0cmVi
YWxsMRQwEgYDVQQLDAtpbmZvcmFtdGljYTEVMBMGA1UEAwwMbGRhcC5lZHQub3Jn
MRwwGgYJKoZIhvcNAQkBFg1hZG1pbkBlZHQub3JnMIIBIjANBgkqhkiG9w0BAQEF
AAOCAQ8AMIIBCgKCAQEA3O9Piw4Ut/2GQXorwH3YE95Q1w8o8d4wCyGcK5+MKoTo
YrH4OmwUhsVwsTsZ8UDyaQtAee7ko3CnGl1CDfAFScPjm+gV5JBe4t2daEeXkR/o
JqXDsT/67EYUEGZJzCloLMMpfS+WmysW5wJtr0TwoAALhUyOur1NbbrA/LG29hEh
ymY+Drs+0h4wsQ7aFcHi+O/HS5TXSVotYmm5ilz1FG2GhApsJzQ8aVNTc83Vi+en
HiVtRXFGit6GPFXS1tqhU+FcQiQLXEpty6CILdaj1bPpL1aKUX5j9+0xbAwYVXp/
TAUzyDZqWYTruFQhlkeS5iSK19EBZuW5CwuSkgEfDwIDAQABo4IBfjCCAXowDAYD
VR0TBAUwAwEB/zARBglghkgBhvhCAQEEBAMCBkAwMwYJYIZIAYb4QgENBCYWJE9w
ZW5TU0wgR2VuZXJhdGVkIFNlcnZlciBDZXJ0aWZpY2F0ZTAdBgNVHQ4EFgQUHnXO
Z711U3OzpjC/KDGXcIZD6u0wgeAGA1UdIwSB2DCB1YAU9ziGUGFfmYBaa1i+zvcA
3hfDerWhgaakgaMwgaAxCzAJBgNVBAYTAmNhMRIwEAYDVQQIDAljYXRhbHVueWEx
EjAQBgNVBAcMCWJhcmNlbG9uYTEcMBoGA1UECgwTdmVyaXRhdCBhYnNvbHV0YSBj
YTEUMBIGA1UECwwLY2VydGlmaWNhdHMxGTAXBgNVBAMMEHZlcml0YXQgYWJzb2x1
dGExGjAYBgkqhkiG9w0BCQEWC2FkbUB2ZXJpdGF0ghRUl9PFttuvir2e0U6kAMQb
k/h93zATBgNVHSUEDDAKBggrBgEFBQcDATALBgNVHQ8EBAMCBaAwDQYJKoZIhvcN
AQENBQADggEBAFU4QoB05kXkDxFVgww/0pl1nVgZfFH6vMCwo3FzZDM8bZSpN5YU
V+Cq+ub5w70M6IeyQzNQ5ZYB4IXzqFqO4Gu0ri0xim3/izOpwngCUBWr9VhK/wt3
4IjrZ3wDcPWwL4HDC+3SeH4xpf8WE3LJcfSz8YB5cFHS/8+7JLmzxAx8TPkDSbWW
mmD1NIYuFS0+RoMs2lFvqBR2B9gMtcwtXbdmA5SfZK+3EhBDxudjy3y+EQwks4si
+kaxpmJzrOxUrG2jltR3Qfv92chwNbDfSnyqr4ZjuQHP2ZdHHE+vWdaYtGYBNk8t
TCyXrfm1/zsUrkqRMCahn2loE+Nj6aiIYT8=
-----END CERTIFICATE-----
